; ModuleID = '50/2429.c'
source_filename = "50/2429.c"
target datalayout = "e-m:e-p270:32:32-p271:32:32-p272:64:64-i64:64-f80:128-n8:16:32:64-S128"
target triple = "x86_64-pc-linux-gnu"

@.str = private unnamed_addr constant [3 x i8] c"%d\00", align 1
@.str.1 = private unnamed_addr constant [4 x i8] c"%d\0A\00", align 1

; Function Attrs: noinline nounwind uwtable
define dso_local i32 @main() #0 {
  %1 = alloca i32, align 4
  %2 = alloca [12 x i32], align 16
  %3 = alloca i32, align 4
  %4 = alloca i32, align 4
  store i32 0, i32* %1, align 4
  %5 = getelementptr inbounds [12 x i32], [12 x i32]* %2, i64 0, i64 0
  store i32 13, i32* %5, align 16
  %6 = getelementptr inbounds [12 x i32], [12 x i32]* %2, i64 0, i64 0
  %7 = load i32, i32* %6, align 16
  %8 = add nsw i32 %7, 31
  %9 = getelementptr inbounds [12 x i32], [12 x i32]* %2, i64 0, i64 1
  store i32 %8, i32* %9, align 4
  %10 = getelementptr inbounds [12 x i32], [12 x i32]* %2, i64 0, i64 1
  %11 = load i32, i32* %10, align 4
  %12 = add nsw i32 %11, 28
  %13 = getelementptr inbounds [12 x i32], [12 x i32]* %2, i64 0, i64 2
  store i32 %12, i32* %13, align 8
  store i32 3, i32* %4, align 4
  br label %14

14:                                               ; preds = %42, %0
  %15 = load i32, i32* %4, align 4
  %16 = icmp slt i32 %15, 8
  br i1 %16, label %17, label %45

17:                                               ; preds = %14
  %18 = load i32, i32* %4, align 4
  %19 = srem i32 %18, 2
  %20 = icmp eq i32 %19, 0
  br i1 %20, label %21, label %31

21:                                               ; preds = %17
  %22 = load i32, i32* %4, align 4
  %23 = sub nsw i32 %22, 1
  %24 = sext i32 %23 to i64
  %25 = getelementptr inbounds [12 x i32], [12 x i32]* %2, i64 0, i64 %24
  %26 = load i32, i32* %25, align 4
  %27 = add nsw i32 %26, 30
  %28 = load i32, i32* %4, align 4
  %29 = sext i32 %28 to i64
  %30 = getelementptr inbounds [12 x i32], [12 x i32]* %2, i64 0, i64 %29
  store i32 %27, i32* %30, align 4
  br label %41

31:                                               ; preds = %17
  %32 = load i32, i32* %4, align 4
  %33 = sub nsw i32 %32, 1
  %34 = sext i32 %33 to i64
  %35 = getelementptr inbounds [12 x i32], [12 x i32]* %2, i64 0, i64 %34
  %36 = load i32, i32* %35, align 4
  %37 = add nsw i32 %36, 31
  %38 = load i32, i32* %4, align 4
  %39 = sext i32 %38 to i64
  %40 = getelementptr inbounds [12 x i32], [12 x i32]* %2, i64 0, i64 %39
  store i32 %37, i32* %40, align 4
  br label %41

41:                                               ; preds = %31, %21
  br label %42

42:                                               ; preds = %41
  %43 = load i32, i32* %4, align 4
  %44 = add nsw i32 %43, 1
  store i32 %44, i32* %4, align 4
  br label %14

45:                                               ; preds = %14
  store i32 8, i32* %4, align 4
  br label %46

46:                                               ; preds = %74, %45
  %47 = load i32, i32* %4, align 4
  %48 = icmp slt i32 %47, 12
  br i1 %48, label %49, label %77

49:                                               ; preds = %46
  %50 = load i32, i32* %4, align 4
  %51 = srem i32 %50, 2
  %52 = icmp eq i32 %51, 0
  br i1 %52, label %53, label %63

53:                                               ; preds = %49
  %54 = load i32, i32* %4, align 4
  %55 = sub nsw i32 %54, 1
  %56 = sext i32 %55 to i64
  %57 = getelementptr inbounds [12 x i32], [12 x i32]* %2, i64 0, i64 %56
  %58 = load i32, i32* %57, align 4
  %59 = add nsw i32 %58, 31
  %60 = load i32, i32* %4, align 4
  %61 = sext i32 %60 to i64
  %62 = getelementptr inbounds [12 x i32], [12 x i32]* %2, i64 0, i64 %61
  store i32 %59, i32* %62, align 4
  br label %73

63:                                               ; preds = %49
  %64 = load i32, i32* %4, align 4
  %65 = sub nsw i32 %64, 1
  %66 = sext i32 %65 to i64
  %67 = getelementptr inbounds [12 x i32], [12 x i32]* %2, i64 0, i64 %66
  %68 = load i32, i32* %67, align 4
  %69 = add nsw i32 %68, 30
  %70 = load i32, i32* %4, align 4
  %71 = sext i32 %70 to i64
  %72 = getelementptr inbounds [12 x i32], [12 x i32]* %2, i64 0, i64 %71
  store i32 %69, i32* %72, align 4
  br label %73

73:                                               ; preds = %63, %53
  br label %74

74:                                               ; preds = %73
  %75 = load i32, i32* %4, align 4
  %76 = add nsw i32 %75, 1
  store i32 %76, i32* %4, align 4
  br label %46

77:                                               ; preds = %46
  %78 = call i32 (i8*, ...) @__isoc99_scanf(i8* getelementptr inbounds ([3 x i8], [3 x i8]* @.str, i64 0, i64 0), i32* %3)
  %79 = load i32, i32* %3, align 4
  %80 = srem i32 %79, 7
  %81 = sub nsw i32 6, %80
  store i32 %81, i32* %3, align 4
  store i32 0, i32* %4, align 4
  br label %82

82:                                               ; preds = %99, %77
  %83 = load i32, i32* %4, align 4
  %84 = icmp slt i32 %83, 12
  br i1 %84, label %85, label %102

85:                                               ; preds = %82
  %86 = load i32, i32* %4, align 4
  %87 = sext i32 %86 to i64
  %88 = getelementptr inbounds [12 x i32], [12 x i32]* %2, i64 0, i64 %87
  %89 = load i32, i32* %88, align 4
  %90 = srem i32 %89, 7
  %91 = load i32, i32* %3, align 4
  %92 = icmp eq i32 %90, %91
  br i1 %92, label %93, label %97

93:                                               ; preds = %85
  %94 = load i32, i32* %4, align 4
  %95 = add nsw i32 %94, 1
  %96 = call i32 (i8*, ...) @printf(i8* getelementptr inbounds ([4 x i8], [4 x i8]* @.str.1, i64 0, i64 0), i32 %95)
  br label %98

97:                                               ; preds = %85
  br label %98

98:                                               ; preds = %97, %93
  br label %99

99:                                               ; preds = %98
  %100 = load i32, i32* %4, align 4
  %101 = add nsw i32 %100, 1
  store i32 %101, i32* %4, align 4
  br label %82

102:                                              ; preds = %82
  ret i32 0
}

declare dso_local i32 @__isoc99_scanf(i8*, ...) #1

declare dso_local i32 @printf(i8*, ...) #1


!llvm.module.flags = !{!0}
!llvm.ident = !{!1}

!0 = !{i32 1, !"wchar_size", i32 4}
!1 = !{!"clang version 10.0.0-4ubuntu1 "}
